target datalayout = "e-m:e-p270:32:32-p271:32:32-p272:64:64-i64:64-i128:128-f80:128-n8:16:32:64-S128"
target triple = "x86_64-pc-linux-gnu"

%struct.AVExpr = type { i32, double, i32, %union.anon, [3 x ptr], ptr, ptr }
%union.anon = type { ptr }
%struct.Parser = type { ptr, i32, ptr, ptr, ptr, ptr, ptr, ptr, ptr, ptr, i32, ptr, ptr, ptr }

@.str = private unnamed_addr constant [50 x i8] c"Invalid chars '%s' at the end of expression '%s'\0A\00", align 1
@eval_class = internal constant { ptr, ptr, ptr, i32, i32, i32, i32, ptr, ptr, ptr, ptr, i32, [4 x i8] } { ptr @.str.2, ptr @av_default_item_name, ptr null, i32 3932772, i32 80, i32 88, i32 0, ptr null, ptr null, ptr null, ptr null, i32 0, [4 x i8] zeroinitializer }, align 8

; Function Attrs: inlinehint nounwind willreturn memory(none) uwtable
define internal i32 @av_isspace(i32 noundef %0) #7 {
  %2 = alloca i32, align 4
  store i32 %0, ptr %2, align 4, !tbaa !17
  %3 = load i32, ptr %2, align 4, !tbaa !17
  %4 = icmp eq i32 %3, 32
  br i1 %4, label %20, label %5

5:                                                ; preds = %1
  %6 = load i32, ptr %2, align 4, !tbaa !17
  %7 = icmp eq i32 %6, 12
  br i1 %7, label %20, label %8

8:                                                ; preds = %5
  %9 = load i32, ptr %2, align 4, !tbaa !17
  %10 = icmp eq i32 %9, 10
  br i1 %10, label %20, label %11

11:                                               ; preds = %8
  %12 = load i32, ptr %2, align 4, !tbaa !17
  %13 = icmp eq i32 %12, 13
  br i1 %13, label %20, label %14

14:                                               ; preds = %11
  %15 = load i32, ptr %2, align 4, !tbaa !17
  %16 = icmp eq i32 %15, 9
  br i1 %16, label %20, label %17

17:                                               ; preds = %14
  %18 = load i32, ptr %2, align 4, !tbaa !17
  %19 = icmp eq i32 %18, 11
  br label %20

20:                                               ; preds = %17, %14, %11, %8, %5, %1
  %21 = phi i1 [ true, %14 ], [ true, %11 ], [ true, %8 ], [ true, %5 ], [ true, %1 ], [ %19, %17 ]
  %22 = zext i1 %21 to i32
  ret i32 %22
}

; Function Attrs: nounwind uwtable
define i32 @av_expr_parse(ptr noundef %0, ptr noundef %1, ptr noundef %2, ptr noundef %3, ptr noundef %4, ptr noundef %5, ptr noundef %6, i32 noundef %7, ptr noundef %8) #0 {
  %10 = alloca i32, align 4
  %11 = alloca ptr, align 8
  %12 = alloca ptr, align 8
  %13 = alloca ptr, align 8
  %14 = alloca ptr, align 8
  %15 = alloca ptr, align 8
  %16 = alloca ptr, align 8
  %17 = alloca ptr, align 8
  %18 = alloca i32, align 4
  %19 = alloca ptr, align 8
  %20 = alloca %struct.Parser, align 8
  %21 = alloca ptr, align 8
  %22 = alloca ptr, align 8
  %23 = alloca ptr, align 8
  %24 = alloca ptr, align 8
  %25 = alloca i32, align 4
  %26 = alloca i32, align 4
  store ptr %0, ptr %11, align 8, !tbaa !23
  store ptr %1, ptr %12, align 8, !tbaa !4
  store ptr %2, ptr %13, align 8, !tbaa !9
  store ptr %3, ptr %14, align 8, !tbaa !9
  store ptr %4, ptr %15, align 8, !tbaa !25
  store ptr %5, ptr %16, align 8, !tbaa !9
  store ptr %6, ptr %17, align 8, !tbaa !25
  store i32 %7, ptr %18, align 4, !tbaa !17
  store ptr %8, ptr %19, align 8, !tbaa !26
  call void @llvm.lifetime.start.p0(i64 112, ptr %20) #12
  call void @llvm.memset.p0.i64(ptr align 8 %20, i8 0, i64 112, i1 false)
  call void @llvm.lifetime.start.p0(i64 8, ptr %21) #12
  store ptr null, ptr %21, align 8, !tbaa !21
  call void @llvm.lifetime.start.p0(i64 8, ptr %22) #12
  %27 = load ptr, ptr %12, align 8, !tbaa !4
  %28 = call i64 @strlen(ptr noundef %27) #13
  %29 = add i64 %28, 1
  %30 = call noalias ptr @av_malloc(i64 noundef %29)
  store ptr %30, ptr %22, align 8, !tbaa !4
  call void @llvm.lifetime.start.p0(i64 8, ptr %23) #12
  %31 = load ptr, ptr %22, align 8, !tbaa !4
  store ptr %31, ptr %23, align 8, !tbaa !4
  call void @llvm.lifetime.start.p0(i64 8, ptr %24) #12
  %32 = load ptr, ptr %12, align 8, !tbaa !4
  store ptr %32, ptr %24, align 8, !tbaa !4
  call void @llvm.lifetime.start.p0(i64 4, ptr %25) #12
  store i32 0, ptr %25, align 4, !tbaa !17
  %33 = load ptr, ptr %22, align 8, !tbaa !4
  %34 = icmp ne ptr %33, null
  br i1 %34, label %36, label %35

35:                                               ; preds = %9
  store i32 -12, ptr %10, align 4
  store i32 1, ptr %26, align 4
  br label %117

36:                                               ; preds = %9
  br label %37

37:                                               ; preds = %54, %36
  %38 = load ptr, ptr %12, align 8, !tbaa !4
  %39 = load i8, ptr %38, align 1, !tbaa !12
  %40 = icmp ne i8 %39, 0
  br i1 %40, label %41, label %55

41:                                               ; preds = %37
  %42 = load ptr, ptr %12, align 8, !tbaa !4
  %43 = getelementptr inbounds nuw i8, ptr %42, i32 1
  store ptr %43, ptr %12, align 8, !tbaa !4
  %44 = load i8, ptr %42, align 1, !tbaa !12
  %45 = sext i8 %44 to i32
  %46 = call i32 @av_isspace(i32 noundef %45) #14
  %47 = icmp ne i32 %46, 0
  br i1 %47, label %54, label %48

48:                                               ; preds = %41
  %49 = load ptr, ptr %12, align 8, !tbaa !4
  %50 = getelementptr inbounds i8, ptr %49, i64 -1
  %51 = load i8, ptr %50, align 1, !tbaa !12
  %52 = load ptr, ptr %23, align 8, !tbaa !4
  %53 = getelementptr inbounds nuw i8, ptr %52, i32 1
  store ptr %53, ptr %23, align 8, !tbaa !4
  store i8 %51, ptr %52, align 1, !tbaa !12
  br label %54

54:                                               ; preds = %48, %41
  br label %37, !llvm.loop !27

55:                                               ; preds = %37
  %56 = load ptr, ptr %23, align 8, !tbaa !4
  %57 = getelementptr inbounds nuw i8, ptr %56, i32 1
  store ptr %57, ptr %23, align 8, !tbaa !4
  store i8 0, ptr %56, align 1, !tbaa !12
  %58 = getelementptr inbounds nuw %struct.Parser, ptr %20, i32 0, i32 0
  store ptr @eval_class, ptr %58, align 8, !tbaa !29
  %59 = getelementptr inbounds nuw %struct.Parser, ptr %20, i32 0, i32 1
  store i32 100, ptr %59, align 8, !tbaa !34
  %60 = load ptr, ptr %22, align 8, !tbaa !4
  %61 = getelementptr inbounds nuw %struct.Parser, ptr %20, i32 0, i32 2
  store ptr %60, ptr %61, align 8, !tbaa !35
  %62 = load ptr, ptr %13, align 8, !tbaa !9
  %63 = getelementptr inbounds nuw %struct.Parser, ptr %20, i32 0, i32 4
  store ptr %62, ptr %63, align 8, !tbaa !36
  %64 = load ptr, ptr %15, align 8, !tbaa !25
  %65 = getelementptr inbounds nuw %struct.Parser, ptr %20, i32 0, i32 5
  store ptr %64, ptr %65, align 8, !tbaa !37
  %66 = load ptr, ptr %14, align 8, !tbaa !9
  %67 = getelementptr inbounds nuw %struct.Parser, ptr %20, i32 0, i32 6
  store ptr %66, ptr %67, align 8, !tbaa !38
  %68 = load ptr, ptr %17, align 8, !tbaa !25
  %69 = getelementptr inbounds nuw %struct.Parser, ptr %20, i32 0, i32 7
  store ptr %68, ptr %69, align 8, !tbaa !39
  %70 = load ptr, ptr %16, align 8, !tbaa !9
  %71 = getelementptr inbounds nuw %struct.Parser, ptr %20, i32 0, i32 8
  store ptr %70, ptr %71, align 8, !tbaa !40
  %72 = load i32, ptr %18, align 4, !tbaa !17
  %73 = getelementptr inbounds nuw %struct.Parser, ptr %20, i32 0, i32 10
  store i32 %72, ptr %73, align 8, !tbaa !41
  %74 = load ptr, ptr %19, align 8, !tbaa !26
  %75 = getelementptr inbounds nuw %struct.Parser, ptr %20, i32 0, i32 11
  store ptr %74, ptr %75, align 8, !tbaa !42
  %76 = call i32 @parse_expr(ptr noundef %21, ptr noundef %20)
  store i32 %76, ptr %25, align 4, !tbaa !17
  %77 = icmp slt i32 %76, 0
  br i1 %77, label %78, label %79

78:                                               ; preds = %55
  br label %113

79:                                               ; preds = %55
  %80 = getelementptr inbounds nuw %struct.Parser, ptr %20, i32 0, i32 2
  %81 = load ptr, ptr %80, align 8, !tbaa !35
  %82 = load i8, ptr %81, align 1, !tbaa !12
  %83 = icmp ne i8 %82, 0
  br i1 %83, label %84, label %88

84:                                               ; preds = %79
  %85 = getelementptr inbounds nuw %struct.Parser, ptr %20, i32 0, i32 2
  %86 = load ptr, ptr %85, align 8, !tbaa !35
  %87 = load ptr, ptr %24, align 8, !tbaa !4
  call void (ptr, i32, ptr, ...) @av_log(ptr noundef %20, i32 noundef 16, ptr noundef @.str, ptr noundef %86, ptr noundef %87)
  store i32 -22, ptr %25, align 4, !tbaa !17
  br label %113

88:                                               ; preds = %79
  %89 = load ptr, ptr %21, align 8, !tbaa !21
  %90 = call i32 @verify_expr(ptr noundef %89)
  %91 = icmp ne i32 %90, 0
  br i1 %91, label %93, label %92

92:                                               ; preds = %88
  store i32 -22, ptr %25, align 4, !tbaa !17
  br label %113

93:                                               ; preds = %88
  %94 = call noalias ptr @av_mallocz(i64 noundef 80)
  %95 = load ptr, ptr %21, align 8, !tbaa !21
  %96 = getelementptr inbounds nuw %struct.AVExpr, ptr %95, i32 0, i32 5
  store ptr %94, ptr %96, align 8, !tbaa !43
  %97 = call noalias ptr @av_mallocz(i64 noundef 320)
  %98 = load ptr, ptr %21, align 8, !tbaa !21
  %99 = getelementptr inbounds nuw %struct.AVExpr, ptr %98, i32 0, i32 6
  store ptr %97, ptr %99, align 8, !tbaa !45
  %100 = load ptr, ptr %21, align 8, !tbaa !21
  %101 = getelementptr inbounds nuw %struct.AVExpr, ptr %100, i32 0, i32 5
  %102 = load ptr, ptr %101, align 8, !tbaa !43
  %103 = icmp ne ptr %102, null
  br i1 %103, label %104, label %109

104:                                              ; preds = %93
  %105 = load ptr, ptr %21, align 8, !tbaa !21
  %106 = getelementptr inbounds nuw %struct.AVExpr, ptr %105, i32 0, i32 6
  %107 = load ptr, ptr %106, align 8, !tbaa !45
  %108 = icmp ne ptr %107, null
  br i1 %108, label %110, label %109

109:                                              ; preds = %104, %93
  store i32 -12, ptr %25, align 4, !tbaa !17
  br label %113

110:                                              ; preds = %104
  %111 = load ptr, ptr %21, align 8, !tbaa !21
  %112 = load ptr, ptr %11, align 8, !tbaa !23
  store ptr %111, ptr %112, align 8, !tbaa !21
  store ptr null, ptr %21, align 8, !tbaa !21
  br label %113

113:                                              ; preds = %110, %109, %92, %84, %78
  %114 = load ptr, ptr %21, align 8, !tbaa !21
  call void @av_expr_free(ptr noundef %114)
  %115 = load ptr, ptr %22, align 8, !tbaa !4
  call void @av_free(ptr noundef %115)
  %116 = load i32, ptr %25, align 4, !tbaa !17
  store i32 %116, ptr %10, align 4
  store i32 1, ptr %26, align 4
  br label %117

117:                                              ; preds = %113, %35
  call void @llvm.lifetime.end.p0(i64 4, ptr %25) #12
  call void @llvm.lifetime.end.p0(i64 8, ptr %24) #12
  call void @llvm.lifetime.end.p0(i64 8, ptr %23) #12
  call void @llvm.lifetime.end.p0(i64 8, ptr %22) #12
  call void @llvm.lifetime.end.p0(i64 8, ptr %21) #12
  call void @llvm.lifetime.end.p0(i64 112, ptr %20) #12
  %118 = load i32, ptr %10, align 4
  ret i32 %118
}