; Function Attrs: nounwind uwtable
define range(i32 -2147483648, 1) i32 @av_expr_parse(ptr noundef writeonly captures(none) %0, ptr noundef %1, ptr noundef %2, ptr noundef %3, ptr noundef %4, ptr noundef %5, ptr noundef %6, i32 noundef %7, ptr noundef %8) local_unnamed_addr #3 {
  %10 = alloca %struct.Parser, align 8
  %11 = alloca ptr, align 8
  call void @llvm.lifetime.start.p0(i64 112, ptr nonnull %10) #14
  %12 = getelementptr inbounds nuw i8, ptr %10, i64 8
  call void @llvm.memset.p0.i64(ptr noundef nonnull align 8 dereferenceable(104) %12, i8 0, i64 104, i1 false)
  call void @llvm.lifetime.start.p0(i64 8, ptr nonnull %11) #14
  store ptr null, ptr %11, align 8, !tbaa !15
  %13 = tail call i64 @strlen(ptr noundef nonnull dereferenceable(1) %1) #15
  %14 = add i64 %13, 1
  %15 = tail call noalias ptr @av_malloc(i64 noundef %14) #14
  %.not = icmp eq ptr %15, null
  br i1 %.not, label %49, label %.preheader

.preheader:                                       ; preds = %9
  %16 = load i8, ptr %1, align 1, !tbaa !4
  %.not2836 = icmp eq i8 %16, 0
  br i1 %.not2836, label %._crit_edge, label %.lr.ph

.lr.ph:                                           ; preds = %.preheader, %av_isspace.exit.thread
  %17 = phi i8 [ %21, %av_isspace.exit.thread ], [ %16, %.preheader ]
  %.02238 = phi ptr [ %.1, %av_isspace.exit.thread ], [ %15, %.preheader ]
  %.02337 = phi ptr [ %18, %av_isspace.exit.thread ], [ %1, %.preheader ]
  %18 = getelementptr inbounds nuw i8, ptr %.02337, i64 1
  switch i8 %17, label %19 [
    i8 32, label %av_isspace.exit.thread
    i8 13, label %av_isspace.exit.thread
    i8 12, label %av_isspace.exit.thread
    i8 10, label %av_isspace.exit.thread
    i8 9, label %av_isspace.exit.thread
    i8 11, label %av_isspace.exit.thread
  ]

19:                                               ; preds = %.lr.ph
  %20 = getelementptr inbounds nuw i8, ptr %.02238, i64 1
  store i8 %17, ptr %.02238, align 1, !tbaa !4
  br label %av_isspace.exit.thread

av_isspace.exit.thread:                           ; preds = %.lr.ph, %.lr.ph, %.lr.ph, %.lr.ph, %.lr.ph, %.lr.ph, %19
  %.1 = phi ptr [ %20, %19 ], [ %.02238, %.lr.ph ], [ %.02238, %.lr.ph ], [ %.02238, %.lr.ph ], [ %.02238, %.lr.ph ], [ %.02238, %.lr.ph ], [ %.02238, %.lr.ph ]
  %21 = load i8, ptr %18, align 1, !tbaa !4
  %.not28 = icmp eq i8 %21, 0
  br i1 %.not28, label %._crit_edge, label %.lr.ph, !llvm.loop !17

._crit_edge:                                      ; preds = %av_isspace.exit.thread, %.preheader
  %.022.lcssa = phi ptr [ %15, %.preheader ], [ %.1, %av_isspace.exit.thread ]
  store i8 0, ptr %.022.lcssa, align 1, !tbaa !4
  store ptr @eval_class, ptr %10, align 8, !tbaa !19
  %22 = getelementptr inbounds nuw i8, ptr %10, i64 8
  store i32 100, ptr %22, align 8, !tbaa !27
  %23 = getelementptr inbounds nuw i8, ptr %10, i64 16
  store ptr %15, ptr %23, align 8, !tbaa !28
  %24 = getelementptr inbounds nuw i8, ptr %10, i64 32
  store ptr %2, ptr %24, align 8, !tbaa !29
  %25 = getelementptr inbounds nuw i8, ptr %10, i64 40
  store ptr %4, ptr %25, align 8, !tbaa !30
  %26 = getelementptr inbounds nuw i8, ptr %10, i64 48
  store ptr %3, ptr %26, align 8, !tbaa !31
  %27 = getelementptr inbounds nuw i8, ptr %10, i64 56
  store ptr %6, ptr %27, align 8, !tbaa !32
  %28 = getelementptr inbounds nuw i8, ptr %10, i64 64
  store ptr %5, ptr %28, align 8, !tbaa !33
  %29 = getelementptr inbounds nuw i8, ptr %10, i64 80
  store i32 %7, ptr %29, align 8, !tbaa !34
  %30 = getelementptr inbounds nuw i8, ptr %10, i64 88
  store ptr %8, ptr %30, align 8, !tbaa !35
  %31 = call fastcc i32 @parse_expr(ptr noundef nonnull %11, ptr noundef %10)
  %32 = icmp slt i32 %31, 0
  br i1 %32, label %47, label %33

33:                                               ; preds = %._crit_edge
  %34 = load ptr, ptr %23, align 8, !tbaa !28
  %35 = load i8, ptr %34, align 1, !tbaa !4
  %.not29 = icmp eq i8 %35, 0
  br i1 %.not29, label %37, label %36

36:                                               ; preds = %33
  call void (ptr, i32, ptr, ...) @av_log(ptr noundef nonnull %10, i32 noundef 16, ptr noundef nonnull @.str, ptr noundef nonnull %34, ptr noundef nonnull %1) #14
  br label %47

37:                                               ; preds = %33
  %38 = load ptr, ptr %11, align 8, !tbaa !15
  %39 = call fastcc i32 @verify_expr(ptr noundef %38)
  %.not30 = icmp eq i32 %39, 0
  br i1 %.not30, label %47, label %40

40:                                               ; preds = %37
  %41 = call noalias ptr @av_mallocz(i64 noundef 80) #14
  %42 = getelementptr inbounds nuw i8, ptr %38, i64 56
  store ptr %41, ptr %42, align 8, !tbaa !36
  %43 = call noalias ptr @av_mallocz(i64 noundef 320) #14
  %44 = getelementptr inbounds nuw i8, ptr %38, i64 64
  store ptr %43, ptr %44, align 8, !tbaa !38
  %45 = load ptr, ptr %42, align 8, !tbaa !36
  %.not31 = icmp eq ptr %45, null
  %.not32 = icmp eq ptr %43, null
  %or.cond = select i1 %.not31, i1 true, i1 %.not32
  br i1 %or.cond, label %47, label %46

46:                                               ; preds = %40
  store ptr %38, ptr %0, align 8, !tbaa !15
  store ptr null, ptr %11, align 8, !tbaa !15
  br label %47

47:                                               ; preds = %40, %37, %._crit_edge, %46, %36
  %.0 = phi i32 [ %31, %._crit_edge ], [ -22, %36 ], [ 0, %46 ], [ -22, %37 ], [ -12, %40 ]
  %48 = load ptr, ptr %11, align 8, !tbaa !15
  call void @av_expr_free(ptr noundef %48)
  call void @av_free(ptr noundef nonnull %15) #14
  br label %49

49:                                               ; preds = %9, %47
  %.021 = phi i32 [ %.0, %47 ], [ -12, %9 ]
  call void @llvm.lifetime.end.p0(i64 8, ptr nonnull %11) #14
  call void @llvm.lifetime.end.p0(i64 112, ptr nonnull %10) #14
  ret i32 %.021
}